; Function Attrs: mustprogress uwtable
define void @_ZN11ByteViewTabC2EP7QWidgetP12epan_dissect(ptr noundef nonnull align 8 dereferenceable(65) %0, ptr noundef %1, ptr noundef %2) unnamed_addr #0 align 2 personality ptr @__gxx_personality_v0 {
  %4 = alloca %class.QString, align 8
  %5 = alloca %class.QFontMetrics, align 8
  %6 = alloca %"class.QMetaObject::Connection", align 8
  tail call void @_ZN10QTabWidgetC2EP7QWidget(ptr noundef nonnull align 8 dereferenceable(40) %0, ptr noundef %1)
  store ptr getelementptr inbounds ({ [57 x ptr], [10 x ptr] }, ptr @_ZTV11ByteViewTab, i64 0, i32 0, i64 2), ptr %0, align 8
  %7 = getelementptr inbounds i8, ptr %0, i64 16
  store ptr getelementptr inbounds ({ [57 x ptr], [10 x ptr] }, ptr @_ZTV11ByteViewTab, i64 0, i32 1, i64 2), ptr %7, align 8
  %8 = getelementptr inbounds i8, ptr %0, i64 40
  store ptr null, ptr %8, align 8
  %9 = getelementptr inbounds i8, ptr %0, i64 48
  %10 = icmp ne ptr %2, null
  %11 = zext i1 %10 to i8
  store i8 %11, ptr %9, align 8
  %12 = getelementptr inbounds i8, ptr %0, i64 56
  store ptr %2, ptr %12, align 8
  %13 = getelementptr inbounds i8, ptr %0, i64 64
  store i8 0, ptr %13, align 8
  invoke void @_ZNK11QMetaObject2trEPKcS1_i(ptr dead_on_unwind nonnull writable sret(%class.QString) align 8 %4, ptr noundef nonnull align 8 dereferenceable(56) @_ZN11ByteViewTab16staticMetaObjectE, ptr noundef nonnull @.str, ptr noundef null, i32 noundef -1)
          to label %_ZN11ByteViewTab2trEPKcS1_i.exit unwind label %30

_ZN11ByteViewTab2trEPKcS1_i.exit:                 ; preds = %3
  invoke void @_ZN7QWidget17setAccessibleNameERK7QString(ptr noundef nonnull align 8 dereferenceable(40) %0, ptr noundef nonnull align 8 dereferenceable(24) %4)
          to label %14 unwind label %32

14:                                               ; preds = %_ZN11ByteViewTab2trEPKcS1_i.exit
  %15 = load ptr, ptr %4, align 8
  %.not.i.i.i = icmp eq ptr %15, null
  br i1 %.not.i.i.i, label %_ZN7QStringD2Ev.exit, label %_ZN17QArrayDataPointerIDsE5derefEv.exit.i.i

_ZN17QArrayDataPointerIDsE5derefEv.exit.i.i:      ; preds = %14
  %16 = atomicrmw sub ptr %15, i32 1 seq_cst, align 4
  %.not.i.i = icmp eq i32 %16, 1
  br i1 %.not.i.i, label %17, label %_ZN7QStringD2Ev.exit

17:                                               ; preds = %_ZN17QArrayDataPointerIDsE5derefEv.exit.i.i
  %18 = load ptr, ptr %4, align 8
  call void @_ZN10QArrayData10deallocateEPS_xx(ptr noundef %18, i64 noundef 2, i64 noundef 8) #9
  br label %_ZN7QStringD2Ev.exit

_ZN7QStringD2Ev.exit:                             ; preds = %14, %_ZN17QArrayDataPointerIDsE5derefEv.exit.i.i, %17
  invoke void @_ZN10QTabWidget14setTabPositionENS_11TabPositionE(ptr noundef nonnull align 8 dereferenceable(40) %0, i32 noundef 1)
          to label %19 unwind label %30

19:                                               ; preds = %_ZN7QStringD2Ev.exit
  invoke void @_ZN10QTabWidget15setDocumentModeEb(ptr noundef nonnull align 8 dereferenceable(40) %0, i1 noundef zeroext true)
          to label %20 unwind label %30

20:                                               ; preds = %19
  %21 = getelementptr inbounds i8, ptr %0, i64 32
  %22 = load ptr, ptr %21, align 8, !noalias !4
  %23 = getelementptr inbounds i8, ptr %22, i64 56
  invoke void @_ZN12QFontMetricsC1ERK5QFont(ptr noundef nonnull align 8 dereferenceable(8) %5, ptr noundef nonnull align 8 dereferenceable(12) %23)
          to label %_ZNK7QWidget11fontMetricsEv.exit unwind label %30

_ZNK7QWidget11fontMetricsEv.exit:                 ; preds = %20
  %24 = invoke noundef i32 @_ZNK12QFontMetrics6heightEv(ptr noundef nonnull align 8 dereferenceable(8) %5)
          to label %25 unwind label %38

25:                                               ; preds = %_ZNK7QWidget11fontMetricsEv.exit
  call void @_ZN12QFontMetricsD1Ev(ptr noundef nonnull align 8 dereferenceable(8) %5) #9
  invoke void @_ZN7QWidget14setMinimumSizeEii(ptr noundef nonnull align 8 dereferenceable(40) %0, i32 noundef %24, i32 noundef %24)
          to label %26 unwind label %30

26:                                               ; preds = %25
  br i1 %10, label %40, label %27

27:                                               ; preds = %26
  %28 = load ptr, ptr @mainApp, align 8
  invoke void @_ZN7QObject7connectEPKS_PKcS1_S3_N2Qt14ConnectionTypeE(ptr dead_on_unwind nonnull writable sret(%"class.QMetaObject::Connection") align 8 %6, ptr noundef %28, ptr noundef nonnull @.str.1, ptr noundef nonnull %0, ptr noundef nonnull @.str.2, i32 noundef 0)
          to label %29 unwind label %30

29:                                               ; preds = %27
  call void @_ZN11QMetaObject10ConnectionD1Ev(ptr noundef nonnull align 8 dereferenceable(8) %6) #9
  br label %40

30:                                               ; preds = %20, %3, %27, %25, %19, %_ZN7QStringD2Ev.exit
  %31 = landingpad { ptr, i32 }
          cleanup
  br label %_ZN7QStringD2Ev.exit13

32:                                               ; preds = %_ZN11ByteViewTab2trEPKcS1_i.exit
  %33 = landingpad { ptr, i32 }
          cleanup
  %34 = load ptr, ptr %4, align 8
  %.not.i.i.i10 = icmp eq ptr %34, null
  br i1 %.not.i.i.i10, label %_ZN7QStringD2Ev.exit13, label %_ZN17QArrayDataPointerIDsE5derefEv.exit.i.i11

_ZN17QArrayDataPointerIDsE5derefEv.exit.i.i11:    ; preds = %32
  %35 = atomicrmw sub ptr %34, i32 1 seq_cst, align 4
  %.not.i.i12 = icmp eq i32 %35, 1
  br i1 %.not.i.i12, label %36, label %_ZN7QStringD2Ev.exit13

36:                                               ; preds = %_ZN17QArrayDataPointerIDsE5derefEv.exit.i.i11
  %37 = load ptr, ptr %4, align 8
  call void @_ZN10QArrayData10deallocateEPS_xx(ptr noundef %37, i64 noundef 2, i64 noundef 8) #9
  br label %_ZN7QStringD2Ev.exit13

38:                                               ; preds = %_ZNK7QWidget11fontMetricsEv.exit
  %39 = landingpad { ptr, i32 }
          cleanup
  call void @_ZN12QFontMetricsD1Ev(ptr noundef nonnull align 8 dereferenceable(8) %5) #9
  br label %_ZN7QStringD2Ev.exit13

40:                                               ; preds = %29, %26
  ret void

_ZN7QStringD2Ev.exit13:                           ; preds = %36, %_ZN17QArrayDataPointerIDsE5derefEv.exit.i.i11, %32, %38, %30
  %.pn = phi { ptr, i32 } [ %31, %30 ], [ %39, %38 ], [ %33, %32 ], [ %33, %_ZN17QArrayDataPointerIDsE5derefEv.exit.i.i11 ], [ %33, %36 ]
  call void @_ZN10QTabWidgetD2Ev(ptr noundef nonnull align 8 dereferenceable(40) %0) #9
  resume { ptr, i32 } %.pn
}